; ModuleID = 'source-C-CXX/6/629.c'
source_filename = "source-C-CXX/6/629.c"
target datalayout = "e-m:e-p270:32:32-p271:32:32-p272:64:64-i64:64-f80:128-n8:16:32:64-S128"
target triple = "x86_64-pc-linux-gnu"

@.str = private unnamed_addr constant [3 x i8] c"%s\00", align 1

; Function Attrs: nounwind sspstrong uwtable
define dso_local i32 @main() local_unnamed_addr #0 {
  %1 = alloca [256 x i8], align 16
  %2 = alloca [256 x i8], align 16
  %3 = alloca [256 x i8], align 16
  %4 = getelementptr inbounds [256 x i8], [256 x i8]* %1, i64 0, i64 0
  call void @llvm.lifetime.start.p0i8(i64 256, i8* nonnull %4) #5
  %5 = getelementptr inbounds [256 x i8], [256 x i8]* %2, i64 0, i64 0
  call void @llvm.lifetime.start.p0i8(i64 256, i8* nonnull %5) #5
  %6 = getelementptr inbounds [256 x i8], [256 x i8]* %3, i64 0, i64 0
  call void @llvm.lifetime.start.p0i8(i64 256, i8* nonnull %6) #5
  %7 = call i32 (i8*, ...) bitcast (i32 (...)* @gets to i32 (i8*, ...)*)(i8* nonnull %4) #5
  %8 = call i32 (i8*, ...) bitcast (i32 (...)* @gets to i32 (i8*, ...)*)(i8* nonnull %5) #5
  %9 = call i32 (i8*, ...) bitcast (i32 (...)* @gets to i32 (i8*, ...)*)(i8* nonnull %6) #5
  %10 = load i8, i8* %4, align 16, !tbaa !5
  %11 = icmp eq i8 %10, 0
  br i1 %11, label %52, label %12

12:                                               ; preds = %0, %44
  %13 = phi i8 [ %50, %44 ], [ %10, %0 ]
  %14 = phi i32 [ %46, %44 ], [ 0, %0 ]
  %15 = phi i32 [ %47, %44 ], [ 0, %0 ]
  %16 = load i8, i8* %5, align 16, !tbaa !5
  %17 = icmp eq i8 %16, 0
  br i1 %17, label %34, label %18

18:                                               ; preds = %12
  %19 = sext i32 %15 to i64
  br label %20

20:                                               ; preds = %18, %27
  %21 = phi i64 [ 0, %18 ], [ %28, %27 ]
  %22 = phi i8 [ %16, %18 ], [ %30, %27 ]
  %23 = add nsw i64 %21, %19
  %24 = getelementptr inbounds [256 x i8], [256 x i8]* %1, i64 0, i64 %23
  %25 = load i8, i8* %24, align 1, !tbaa !5
  %26 = icmp eq i8 %25, %22
  br i1 %26, label %27, label %41

27:                                               ; preds = %20
  %28 = add nuw i64 %21, 1
  %29 = getelementptr inbounds [256 x i8], [256 x i8]* %2, i64 0, i64 %28
  %30 = load i8, i8* %29, align 1, !tbaa !5
  %31 = icmp eq i8 %30, 0
  br i1 %31, label %32, label %20, !llvm.loop !8

32:                                               ; preds = %27
  %33 = trunc i64 %28 to i32
  br label %34

34:                                               ; preds = %32, %12
  %35 = phi i32 [ 0, %12 ], [ %33, %32 ]
  %36 = icmp eq i32 %14, 0
  br i1 %36, label %37, label %41

37:                                               ; preds = %34
  %38 = call i32 (i8*, ...) @printf(i8* nonnull dereferenceable(1) getelementptr inbounds ([3 x i8], [3 x i8]* @.str, i64 0, i64 0), i8* nonnull %6)
  %39 = add i32 %35, %15
  %40 = add i32 %39, -1
  br label %44

41:                                               ; preds = %20, %34
  %42 = sext i8 %13 to i32
  %43 = call i32 @putchar(i32 %42)
  br label %44

44:                                               ; preds = %37, %41
  %45 = phi i32 [ %40, %37 ], [ %15, %41 ]
  %46 = phi i32 [ 1, %37 ], [ %14, %41 ]
  %47 = add nsw i32 %45, 1
  %48 = sext i32 %47 to i64
  %49 = getelementptr inbounds [256 x i8], [256 x i8]* %1, i64 0, i64 %48
  %50 = load i8, i8* %49, align 1, !tbaa !5
  %51 = icmp eq i8 %50, 0
  br i1 %51, label %52, label %12, !llvm.loop !10

52:                                               ; preds = %44, %0
  call void @llvm.lifetime.end.p0i8(i64 256, i8* nonnull %6) #5
  call void @llvm.lifetime.end.p0i8(i64 256, i8* nonnull %5) #5
  call void @llvm.lifetime.end.p0i8(i64 256, i8* nonnull %4) #5
  ret i32 0
}

; Function Attrs: argmemonly mustprogress nofree nosync nounwind willreturn
declare void @llvm.lifetime.start.p0i8(i64 immarg, i8* nocapture) #1

declare i32 @gets(...) local_unnamed_addr #2

; Function Attrs: nofree nounwind
declare noundef i32 @printf(i8* nocapture noundef readonly, ...) local_unnamed_addr #3

; Function Attrs: argmemonly mustprogress nofree nosync nounwind willreturn
declare void @llvm.lifetime.end.p0i8(i64 immarg, i8* nocapture) #1

; Function Attrs: nofree nounwind
declare noundef i32 @putchar(i32 noundef) local_unnamed_addr #4


!llvm.module.flags = !{!0, !1, !2, !3}
!llvm.ident = !{!4}

!0 = !{i32 1, !"wchar_size", i32 4}
!1 = !{i32 7, !"PIC Level", i32 2}
!2 = !{i32 7, !"PIE Level", i32 2}
!3 = !{i32 7, !"uwtable", i32 1}
!4 = !{!"clang version 13.0.0"}
!5 = !{!6, !6, i64 0}
!6 = !{!"omnipotent char", !7, i64 0}
!7 = !{!"Simple C/C++ TBAA"}
!8 = distinct !{!8, !9}
!9 = !{!"llvm.loop.mustprogress"}
!10 = distinct !{!10, !9}
